target datalayout = "e-m:e-p270:32:32-p271:32:32-p272:64:64-i64:64-i128:128-f80:128-n8:16:32:64-S128"
target triple = "x86_64-pc-linux-gnu"

%class.LIR_Opr = type { i64 }
%class.Register = type { i32 }
%class.LIR_Assembler = type { ptr, ptr, ptr, ptr, ptr, ptr, i32, i32, %class.Label }
%class.Label = type <{ i32, [4 x i32], i32, ptr, i8, [7 x i8] }>
%class.RelocationHolder = type { [40 x i8] }
%class.AddressLiteral = type { %class.RelocationHolder, i8, ptr }
%class.LIR_Op = type { ptr, %class.LIR_Opr, i16, i16, ptr, i32, i32, ptr }
%class.LIR_OpCall = type { %class.LIR_Op, ptr, ptr }

@_ZL3rax = internal constant %class.Register zeroinitializer, align 4

; Function Attrs: mustprogress nounwind uwtable
define linkonce_odr hidden noundef ptr @_ZNK6LIR_Op4infoEv(ptr noundef nonnull align 8 dereferenceable(48) %0) #1 comdat align 2 {
  %2 = alloca ptr, align 8
  store ptr %0, ptr %2, align 8
  %3 = load ptr, ptr %2, align 8
  %4 = getelementptr inbounds %class.LIR_Op, ptr %3, i32 0, i32 4
  %5 = load ptr, ptr %4, align 8
  ret ptr %5
}

; Function Attrs: mustprogress nounwind uwtable
define linkonce_odr hidden noundef ptr @_ZNK10LIR_OpCall4addrEv(ptr noundef nonnull align 8 dereferenceable(64) %0) #1 comdat align 2 {
  %2 = alloca ptr, align 8
  store ptr %0, ptr %2, align 8
  %3 = load ptr, ptr %2, align 8
  %4 = getelementptr inbounds %class.LIR_OpCall, ptr %3, i32 0, i32 1
  %5 = load ptr, ptr %4, align 8
  ret ptr %5
}

; Function Attrs: mustprogress nounwind uwtable
define hidden void @_ZN13LIR_Assembler4callEP14LIR_OpJavaCallN9relocInfo9relocTypeE(ptr noundef nonnull align 8 dereferenceable(96) %0, ptr noundef %1, i32 noundef %2) #1 align 2 {
  %4 = alloca ptr, align 8
  %5 = alloca ptr, align 8
  %6 = alloca i32, align 4
  %7 = alloca %class.AddressLiteral, align 8
  %8 = alloca %class.Register, align 4
  store ptr %0, ptr %4, align 8
  store ptr %1, ptr %5, align 8
  store i32 %2, ptr %6, align 4
  %9 = load ptr, ptr %4, align 8
  %10 = getelementptr inbounds %class.LIR_Assembler, ptr %9, i32 0, i32 0
  %11 = load ptr, ptr %10, align 8
  %12 = load ptr, ptr %5, align 8
  %13 = call noundef ptr @_ZNK10LIR_OpCall4addrEv(ptr noundef nonnull align 8 dereferenceable(64) %12)
  %14 = load i32, ptr %6, align 4
  call void @_ZN14AddressLiteralC1EPhN9relocInfo9relocTypeE(ptr noundef nonnull align 8 dereferenceable(56) %7, ptr noundef %13, i32 noundef %14)
  call void @llvm.memcpy.p0.p0.i64(ptr align 4 %8, ptr align 4 @_ZL3rax, i64 4, i1 false)
  %15 = getelementptr inbounds %class.Register, ptr %8, i32 0, i32 0
  %16 = load i32, ptr %15, align 4
  call void @_ZN14MacroAssembler4callE14AddressLiteral8Register(ptr noundef nonnull align 8 dereferenceable(40) %11, ptr noundef %7, i32 %16)
  %17 = call noundef i32 @_ZNK13LIR_Assembler11code_offsetEv(ptr noundef nonnull align 8 dereferenceable(96) %9)
  %18 = load ptr, ptr %5, align 8
  %19 = call noundef ptr @_ZNK6LIR_Op4infoEv(ptr noundef nonnull align 8 dereferenceable(48) %18)
  call void @_ZN13LIR_Assembler13add_call_infoEiP12CodeEmitInfo(ptr noundef nonnull align 8 dereferenceable(96) %9, i32 noundef %17, ptr noundef %19)
  %20 = getelementptr inbounds %class.LIR_Assembler, ptr %9, i32 0, i32 0
  %21 = load ptr, ptr %20, align 8
  call void @_ZN14MacroAssembler13post_call_nopEv(ptr noundef nonnull align 8 dereferenceable(40) %21)
  ret void
}