; Function Attrs: mustprogress nounwind uwtable
define hidden void @_ZN13LIR_Assembler4callEP14LIR_OpJavaCallN9relocInfo9relocTypeE(ptr noundef nonnull align 8 dereferenceable(96) %0, ptr nocapture noundef readonly %1, i32 noundef %2) local_unnamed_addr #0 align 2 {
  %4 = alloca %class.AddressLiteral, align 8
  %5 = load ptr, ptr %0, align 8
  %6 = getelementptr inbounds i8, ptr %1, i64 48
  %7 = load ptr, ptr %6, align 8
  call void @_ZN14AddressLiteralC1EPhN9relocInfo9relocTypeE(ptr noundef nonnull align 8 dereferenceable(56) %4, ptr noundef %7, i32 noundef %2) #15
  call void @_ZN14MacroAssembler4callE14AddressLiteral8Register(ptr noundef nonnull align 8 dereferenceable(40) %5, ptr noundef nonnull %4, i32 0) #15
  %8 = call noundef i32 @_ZNK13LIR_Assembler11code_offsetEv(ptr noundef nonnull align 8 dereferenceable(96) %0) #15
  %9 = getelementptr inbounds i8, ptr %1, i64 24
  %10 = load ptr, ptr %9, align 8
  call void @_ZN13LIR_Assembler13add_call_infoEiP12CodeEmitInfo(ptr noundef nonnull align 8 dereferenceable(96) %0, i32 noundef %8, ptr noundef %10) #15
  %11 = load ptr, ptr %0, align 8
  call void @_ZN14MacroAssembler13post_call_nopEv(ptr noundef nonnull align 8 dereferenceable(40) %11) #15
  ret void
}